target datalayout = "e-m:e-p270:32:32-p271:32:32-p272:64:64-i64:64-i128:128-f80:128-n8:16:32:64-S128"
target triple = "x86_64-pc-linux-gnu"

%"class.cv::dynafu::Quaternion" = type { %"class.cv::Vec" }
%"class.cv::Vec" = type { %"class.cv::Matx" }
%"class.cv::Matx" = type { [4 x float] }
%"class.cv::Affine3" = type { %"class.cv::Matx.0" }
%"class.cv::Matx.0" = type { [16 x float] }
%"class.cv::Vec.2" = type { %"class.cv::Matx.3" }
%"class.cv::Matx.3" = type { [3 x float] }
%"class.cv::dynafu::DualQuaternion" = type { %"class.cv::dynafu::Quaternion", %"class.cv::dynafu::Quaternion" }

@_ZN2cv6dynafu10QuaternionC1Ev = hidden unnamed_addr alias void (ptr), ptr @_ZN2cv6dynafu10QuaternionC2Ev
@_ZN2cv6dynafu10QuaternionC1Effff = hidden unnamed_addr alias void (ptr, float, float, float, float), ptr @_ZN2cv6dynafu10QuaternionC2Effff
@_ZN2cv6dynafu10QuaternionC1ERKNS_7Affine3IfEE = hidden unnamed_addr alias void (ptr, ptr), ptr @_ZN2cv6dynafu10QuaternionC2ERKNS_7Affine3IfEE

; Function Attrs: inlinehint mustprogress nounwind uwtable
define linkonce_odr hidden void @_ZN2cv4MatxIfLi3ELi1EEC2Efff(ptr noundef nonnull align 4 dereferenceable(12) %0, float noundef %1, float noundef %2, float noundef %3) unnamed_addr #3 comdat align 2 {
  %5 = alloca ptr, align 8
  %6 = alloca float, align 4
  %7 = alloca float, align 4
  %8 = alloca float, align 4
  %9 = alloca i32, align 4
  store ptr %0, ptr %5, align 8, !tbaa !62
  store float %1, ptr %6, align 4, !tbaa !10
  store float %2, ptr %7, align 4, !tbaa !10
  store float %3, ptr %8, align 4, !tbaa !10
  %10 = load ptr, ptr %5, align 8
  %11 = load float, ptr %6, align 4, !tbaa !10
  %12 = getelementptr inbounds nuw %"class.cv::Matx.3", ptr %10, i32 0, i32 0
  %13 = getelementptr inbounds [3 x float], ptr %12, i64 0, i64 0
  store float %11, ptr %13, align 4, !tbaa !10
  %14 = load float, ptr %7, align 4, !tbaa !10
  %15 = getelementptr inbounds nuw %"class.cv::Matx.3", ptr %10, i32 0, i32 0
  %16 = getelementptr inbounds [3 x float], ptr %15, i64 0, i64 1
  store float %14, ptr %16, align 4, !tbaa !10
  %17 = load float, ptr %8, align 4, !tbaa !10
  %18 = getelementptr inbounds nuw %"class.cv::Matx.3", ptr %10, i32 0, i32 0
  %19 = getelementptr inbounds [3 x float], ptr %18, i64 0, i64 2
  store float %17, ptr %19, align 4, !tbaa !10
  call void @llvm.lifetime.start.p0(i64 4, ptr %9) #13
  store i32 3, ptr %9, align 4, !tbaa !16
  br label %20

20:                                               ; preds = %29, %4
  %21 = load i32, ptr %9, align 4, !tbaa !16
  %22 = icmp slt i32 %21, 3
  br i1 %22, label %24, label %23

23:                                               ; preds = %20
  call void @llvm.lifetime.end.p0(i64 4, ptr %9) #13
  br label %32

24:                                               ; preds = %20
  %25 = getelementptr inbounds nuw %"class.cv::Matx.3", ptr %10, i32 0, i32 0
  %26 = load i32, ptr %9, align 4, !tbaa !16
  %27 = sext i32 %26 to i64
  %28 = getelementptr inbounds [3 x float], ptr %25, i64 0, i64 %27
  store float 0.000000e+00, ptr %28, align 4, !tbaa !10
  br label %29

29:                                               ; preds = %24
  %30 = load i32, ptr %9, align 4, !tbaa !16
  %31 = add nsw i32 %30, 1
  store i32 %31, ptr %9, align 4, !tbaa !16
  br label %20, !llvm.loop !64

32:                                               ; preds = %23
  ret void
}

; Function Attrs: inlinehint mustprogress nounwind uwtable
define linkonce_odr hidden noundef nonnull align 4 dereferenceable(4) ptr @_ZNK2cv3VecIfLi4EEixEi(ptr noundef nonnull align 4 dereferenceable(16) %0, i32 noundef %1) #3 comdat align 2 {
  %3 = alloca ptr, align 8
  %4 = alloca i32, align 4
  store ptr %0, ptr %3, align 8, !tbaa !8
  store i32 %1, ptr %4, align 4, !tbaa !16
  %5 = load ptr, ptr %3, align 8
  %6 = getelementptr inbounds nuw %"class.cv::Matx", ptr %5, i32 0, i32 0
  %7 = load i32, ptr %4, align 4, !tbaa !16
  %8 = sext i32 %7 to i64
  %9 = getelementptr inbounds [4 x float], ptr %6, i64 0, i64 %8
  ret ptr %9
}

; Function Attrs: inlinehint mustprogress uwtable
define linkonce_odr hidden void @_ZN2cv3VecIfLi3EEC2Efff(ptr noundef nonnull align 4 dereferenceable(12) %0, float noundef %1, float noundef %2, float noundef %3) unnamed_addr #1 comdat align 2 {
  %5 = alloca ptr, align 8
  %6 = alloca float, align 4
  %7 = alloca float, align 4
  %8 = alloca float, align 4
  store ptr %0, ptr %5, align 8, !tbaa !24
  store float %1, ptr %6, align 4, !tbaa !10
  store float %2, ptr %7, align 4, !tbaa !10
  store float %3, ptr %8, align 4, !tbaa !10
  %9 = load ptr, ptr %5, align 8
  %10 = load float, ptr %6, align 4, !tbaa !10
  %11 = load float, ptr %7, align 4, !tbaa !10
  %12 = load float, ptr %8, align 4, !tbaa !10
  call void @_ZN2cv4MatxIfLi3ELi1EEC2Efff(ptr noundef nonnull align 4 dereferenceable(12) %9, float noundef %10, float noundef %11, float noundef %12)
  ret void
}

; Function Attrs: mustprogress uwtable
define linkonce_odr hidden noundef float @_ZNK2cv6dynafu10Quaternion1wEv(ptr noundef nonnull align 4 dereferenceable(16) %0) #0 comdat align 2 {
  %2 = alloca ptr, align 8
  store ptr %0, ptr %2, align 8, !tbaa !3
  %3 = load ptr, ptr %2, align 8
  %4 = getelementptr inbounds nuw %"class.cv::dynafu::Quaternion", ptr %3, i32 0, i32 0
  %5 = call noundef nonnull align 4 dereferenceable(4) ptr @_ZNK2cv3VecIfLi4EEixEi(ptr noundef nonnull align 4 dereferenceable(16) %4, i32 noundef 0)
  %6 = load float, ptr %5, align 4, !tbaa !10
  ret float %6
}

; Function Attrs: mustprogress uwtable
define linkonce_odr hidden noundef float @_ZNK2cv6dynafu10Quaternion1kEv(ptr noundef nonnull align 4 dereferenceable(16) %0) #0 comdat align 2 {
  %2 = alloca ptr, align 8
  store ptr %0, ptr %2, align 8, !tbaa !3
  %3 = load ptr, ptr %2, align 8
  %4 = getelementptr inbounds nuw %"class.cv::dynafu::Quaternion", ptr %3, i32 0, i32 0
  %5 = call noundef nonnull align 4 dereferenceable(4) ptr @_ZNK2cv3VecIfLi4EEixEi(ptr noundef nonnull align 4 dereferenceable(16) %4, i32 noundef 3)
  %6 = load float, ptr %5, align 4, !tbaa !10
  ret float %6
}

; Function Attrs: mustprogress uwtable
define linkonce_odr hidden noundef float @_ZNK2cv6dynafu10Quaternion1jEv(ptr noundef nonnull align 4 dereferenceable(16) %0) #0 comdat align 2 {
  %2 = alloca ptr, align 8
  store ptr %0, ptr %2, align 8, !tbaa !3
  %3 = load ptr, ptr %2, align 8
  %4 = getelementptr inbounds nuw %"class.cv::dynafu::Quaternion", ptr %3, i32 0, i32 0
  %5 = call noundef nonnull align 4 dereferenceable(4) ptr @_ZNK2cv3VecIfLi4EEixEi(ptr noundef nonnull align 4 dereferenceable(16) %4, i32 noundef 2)
  %6 = load float, ptr %5, align 4, !tbaa !10
  ret float %6
}

; Function Attrs: mustprogress uwtable
define linkonce_odr hidden noundef float @_ZNK2cv6dynafu10Quaternion1iEv(ptr noundef nonnull align 4 dereferenceable(16) %0) #0 comdat align 2 {
  %2 = alloca ptr, align 8
  store ptr %0, ptr %2, align 8, !tbaa !3
  %3 = load ptr, ptr %2, align 8
  %4 = getelementptr inbounds nuw %"class.cv::dynafu::Quaternion", ptr %3, i32 0, i32 0
  %5 = call noundef nonnull align 4 dereferenceable(4) ptr @_ZNK2cv3VecIfLi4EEixEi(ptr noundef nonnull align 4 dereferenceable(16) %4, i32 noundef 1)
  %6 = load float, ptr %5, align 4, !tbaa !10
  ret float %6
}

; Function Attrs: inlinehint mustprogress nounwind uwtable
define linkonce_odr hidden noundef nonnull align 4 dereferenceable(4) ptr @_ZN2cv3VecIfLi3EEixEi(ptr noundef nonnull align 4 dereferenceable(12) %0, i32 noundef %1) #3 comdat align 2 {
  %3 = alloca ptr, align 8
  %4 = alloca i32, align 4
  store ptr %0, ptr %3, align 8, !tbaa !24
  store i32 %1, ptr %4, align 4, !tbaa !16
  %5 = load ptr, ptr %3, align 8
  %6 = getelementptr inbounds nuw %"class.cv::Matx.3", ptr %5, i32 0, i32 0
  %7 = load i32, ptr %4, align 4, !tbaa !16
  %8 = sext i32 %7 to i64
  %9 = getelementptr inbounds [3 x float], ptr %6, i64 0, i64 %8
  ret ptr %9
}

; Function Attrs: inlinehint mustprogress uwtable
define linkonce_odr hidden void @_ZNK2cv7Affine3IfE11translationEv(ptr dead_on_unwind noalias writable sret(%"class.cv::Vec.2") align 4 %0, ptr noundef nonnull align 4 dereferenceable(64) %1) #1 comdat align 2 {
  %3 = alloca ptr, align 8
  %4 = alloca ptr, align 8
  store ptr %0, ptr %3, align 8
  store ptr %1, ptr %4, align 8, !tbaa !12
  %5 = load ptr, ptr %4, align 8
  %6 = getelementptr inbounds nuw %"class.cv::Affine3", ptr %5, i32 0, i32 0
  %7 = getelementptr inbounds nuw %"class.cv::Matx.0", ptr %6, i32 0, i32 0
  %8 = getelementptr inbounds [16 x float], ptr %7, i64 0, i64 3
  %9 = load float, ptr %8, align 4, !tbaa !10
  %10 = getelementptr inbounds nuw %"class.cv::Affine3", ptr %5, i32 0, i32 0
  %11 = getelementptr inbounds nuw %"class.cv::Matx.0", ptr %10, i32 0, i32 0
  %12 = getelementptr inbounds [16 x float], ptr %11, i64 0, i64 7
  %13 = load float, ptr %12, align 4, !tbaa !10
  %14 = getelementptr inbounds nuw %"class.cv::Affine3", ptr %5, i32 0, i32 0
  %15 = getelementptr inbounds nuw %"class.cv::Matx.0", ptr %14, i32 0, i32 0
  %16 = getelementptr inbounds [16 x float], ptr %15, i64 0, i64 11
  %17 = load float, ptr %16, align 4, !tbaa !10
  call void @_ZN2cv3VecIfLi3EEC2Efff(ptr noundef nonnull align 4 dereferenceable(12) %0, float noundef %9, float noundef %13, float noundef %17)
  ret void
}

; Function Attrs: mustprogress uwtable
define hidden void @_ZN2cv6dynafu14DualQuaternionC2ERKNS_7Affine3IfEE(ptr noundef nonnull align 4 dereferenceable(32) %0, ptr noundef nonnull align 4 dereferenceable(64) %1) unnamed_addr #0 align 2 {
  %3 = alloca ptr, align 8
  %4 = alloca ptr, align 8
  %5 = alloca %"class.cv::dynafu::Quaternion", align 4
  %6 = alloca %"class.cv::Vec.2", align 4
  %7 = alloca float, align 4
  %8 = alloca float, align 4
  %9 = alloca float, align 4
  %10 = alloca float, align 4
  %11 = alloca %"class.cv::dynafu::Quaternion", align 4
  store ptr %0, ptr %3, align 8, !tbaa !28
  store ptr %1, ptr %4, align 8, !tbaa !12
  %12 = load ptr, ptr %3, align 8
  %13 = getelementptr inbounds nuw %"class.cv::dynafu::DualQuaternion", ptr %12, i32 0, i32 0
  call void @_ZN2cv6dynafu10QuaternionC1Ev(ptr noundef nonnull align 4 dereferenceable(16) %13)
  %14 = getelementptr inbounds nuw %"class.cv::dynafu::DualQuaternion", ptr %12, i32 0, i32 1
  call void @_ZN2cv6dynafu10QuaternionC1Ev(ptr noundef nonnull align 4 dereferenceable(16) %14)
  call void @llvm.lifetime.start.p0(i64 16, ptr %5) #13
  %15 = load ptr, ptr %4, align 8, !tbaa !12
  call void @_ZN2cv6dynafu10QuaternionC1ERKNS_7Affine3IfEE(ptr noundef nonnull align 4 dereferenceable(16) %5, ptr noundef nonnull align 4 dereferenceable(64) %15)
  %16 = getelementptr inbounds nuw %"class.cv::dynafu::DualQuaternion", ptr %12, i32 0, i32 0
  call void @llvm.memcpy.p0.p0.i64(ptr align 4 %16, ptr align 4 %5, i64 16, i1 false)
  call void @llvm.lifetime.end.p0(i64 16, ptr %5) #13
  call void @llvm.lifetime.start.p0(i64 12, ptr %6) #13
  %17 = load ptr, ptr %4, align 8, !tbaa !12
  call void @_ZNK2cv7Affine3IfE11translationEv(ptr dead_on_unwind writable sret(%"class.cv::Vec.2") align 4 %6, ptr noundef nonnull align 4 dereferenceable(64) %17)
  call void @llvm.lifetime.start.p0(i64 4, ptr %7) #13
  %18 = call noundef nonnull align 4 dereferenceable(4) ptr @_ZN2cv3VecIfLi3EEixEi(ptr noundef nonnull align 4 dereferenceable(12) %6, i32 noundef 0)
  %19 = load float, ptr %18, align 4, !tbaa !10
  %20 = getelementptr inbounds nuw %"class.cv::dynafu::DualQuaternion", ptr %12, i32 0, i32 0
  %21 = call noundef float @_ZNK2cv6dynafu10Quaternion1iEv(ptr noundef nonnull align 4 dereferenceable(16) %20)
  %22 = call noundef nonnull align 4 dereferenceable(4) ptr @_ZN2cv3VecIfLi3EEixEi(ptr noundef nonnull align 4 dereferenceable(12) %6, i32 noundef 1)
  %23 = load float, ptr %22, align 4, !tbaa !10
  %24 = getelementptr inbounds nuw %"class.cv::dynafu::DualQuaternion", ptr %12, i32 0, i32 0
  %25 = call noundef float @_ZNK2cv6dynafu10Quaternion1jEv(ptr noundef nonnull align 4 dereferenceable(16) %24)
  %26 = fmul float %23, %25
  %27 = call float @llvm.fmuladd.f32(float %19, float %21, float %26)
  %28 = call noundef nonnull align 4 dereferenceable(4) ptr @_ZN2cv3VecIfLi3EEixEi(ptr noundef nonnull align 4 dereferenceable(12) %6, i32 noundef 2)
  %29 = load float, ptr %28, align 4, !tbaa !10
  %30 = getelementptr inbounds nuw %"class.cv::dynafu::DualQuaternion", ptr %12, i32 0, i32 0
  %31 = call noundef float @_ZNK2cv6dynafu10Quaternion1kEv(ptr noundef nonnull align 4 dereferenceable(16) %30)
  %32 = call float @llvm.fmuladd.f32(float %29, float %31, float %27)
  %33 = fmul float -5.000000e-01, %32
  store float %33, ptr %7, align 4, !tbaa !10
  call void @llvm.lifetime.start.p0(i64 4, ptr %8) #13
  %34 = call noundef nonnull align 4 dereferenceable(4) ptr @_ZN2cv3VecIfLi3EEixEi(ptr noundef nonnull align 4 dereferenceable(12) %6, i32 noundef 0)
  %35 = load float, ptr %34, align 4, !tbaa !10
  %36 = getelementptr inbounds nuw %"class.cv::dynafu::DualQuaternion", ptr %12, i32 0, i32 0
  %37 = call noundef float @_ZNK2cv6dynafu10Quaternion1wEv(ptr noundef nonnull align 4 dereferenceable(16) %36)
  %38 = call noundef nonnull align 4 dereferenceable(4) ptr @_ZN2cv3VecIfLi3EEixEi(ptr noundef nonnull align 4 dereferenceable(12) %6, i32 noundef 1)
  %39 = load float, ptr %38, align 4, !tbaa !10
  %40 = getelementptr inbounds nuw %"class.cv::dynafu::DualQuaternion", ptr %12, i32 0, i32 0
  %41 = call noundef float @_ZNK2cv6dynafu10Quaternion1kEv(ptr noundef nonnull align 4 dereferenceable(16) %40)
  %42 = fmul float %39, %41
  %43 = call float @llvm.fmuladd.f32(float %35, float %37, float %42)
  %44 = call noundef nonnull align 4 dereferenceable(4) ptr @_ZN2cv3VecIfLi3EEixEi(ptr noundef nonnull align 4 dereferenceable(12) %6, i32 noundef 2)
  %45 = load float, ptr %44, align 4, !tbaa !10
  %46 = getelementptr inbounds nuw %"class.cv::dynafu::DualQuaternion", ptr %12, i32 0, i32 0
  %47 = call noundef float @_ZNK2cv6dynafu10Quaternion1jEv(ptr noundef nonnull align 4 dereferenceable(16) %46)
  %48 = fneg float %45
  %49 = call float @llvm.fmuladd.f32(float %48, float %47, float %43)
  %50 = fmul float 5.000000e-01, %49
  store float %50, ptr %8, align 4, !tbaa !10
  call void @llvm.lifetime.start.p0(i64 4, ptr %9) #13
  %51 = call noundef nonnull align 4 dereferenceable(4) ptr @_ZN2cv3VecIfLi3EEixEi(ptr noundef nonnull align 4 dereferenceable(12) %6, i32 noundef 0)
  %52 = load float, ptr %51, align 4, !tbaa !10
  %53 = fneg float %52
  %54 = getelementptr inbounds nuw %"class.cv::dynafu::DualQuaternion", ptr %12, i32 0, i32 0
  %55 = call noundef float @_ZNK2cv6dynafu10Quaternion1kEv(ptr noundef nonnull align 4 dereferenceable(16) %54)
  %56 = call noundef nonnull align 4 dereferenceable(4) ptr @_ZN2cv3VecIfLi3EEixEi(ptr noundef nonnull align 4 dereferenceable(12) %6, i32 noundef 1)
  %57 = load float, ptr %56, align 4, !tbaa !10
  %58 = getelementptr inbounds nuw %"class.cv::dynafu::DualQuaternion", ptr %12, i32 0, i32 0
  %59 = call noundef float @_ZNK2cv6dynafu10Quaternion1wEv(ptr noundef nonnull align 4 dereferenceable(16) %58)
  %60 = fmul float %57, %59
  %61 = call float @llvm.fmuladd.f32(float %53, float %55, float %60)
  %62 = call noundef nonnull align 4 dereferenceable(4) ptr @_ZN2cv3VecIfLi3EEixEi(ptr noundef nonnull align 4 dereferenceable(12) %6, i32 noundef 2)
  %63 = load float, ptr %62, align 4, !tbaa !10
  %64 = getelementptr inbounds nuw %"class.cv::dynafu::DualQuaternion", ptr %12, i32 0, i32 0
  %65 = call noundef float @_ZNK2cv6dynafu10Quaternion1iEv(ptr noundef nonnull align 4 dereferenceable(16) %64)
  %66 = call float @llvm.fmuladd.f32(float %63, float %65, float %61)
  %67 = fmul float 5.000000e-01, %66
  store float %67, ptr %9, align 4, !tbaa !10
  call void @llvm.lifetime.start.p0(i64 4, ptr %10) #13
  %68 = call noundef nonnull align 4 dereferenceable(4) ptr @_ZN2cv3VecIfLi3EEixEi(ptr noundef nonnull align 4 dereferenceable(12) %6, i32 noundef 0)
  %69 = load float, ptr %68, align 4, !tbaa !10
  %70 = getelementptr inbounds nuw %"class.cv::dynafu::DualQuaternion", ptr %12, i32 0, i32 0
  %71 = call noundef float @_ZNK2cv6dynafu10Quaternion1jEv(ptr noundef nonnull align 4 dereferenceable(16) %70)
  %72 = call noundef nonnull align 4 dereferenceable(4) ptr @_ZN2cv3VecIfLi3EEixEi(ptr noundef nonnull align 4 dereferenceable(12) %6, i32 noundef 1)
  %73 = load float, ptr %72, align 4, !tbaa !10
  %74 = getelementptr inbounds nuw %"class.cv::dynafu::DualQuaternion", ptr %12, i32 0, i32 0
  %75 = call noundef float @_ZNK2cv6dynafu10Quaternion1iEv(ptr noundef nonnull align 4 dereferenceable(16) %74)
  %76 = fmul float %73, %75
  %77 = fneg float %76
  %78 = call float @llvm.fmuladd.f32(float %69, float %71, float %77)
  %79 = call noundef nonnull align 4 dereferenceable(4) ptr @_ZN2cv3VecIfLi3EEixEi(ptr noundef nonnull align 4 dereferenceable(12) %6, i32 noundef 2)
  %80 = load float, ptr %79, align 4, !tbaa !10
  %81 = getelementptr inbounds nuw %"class.cv::dynafu::DualQuaternion", ptr %12, i32 0, i32 0
  %82 = call noundef float @_ZNK2cv6dynafu10Quaternion1wEv(ptr noundef nonnull align 4 dereferenceable(16) %81)
  %83 = call float @llvm.fmuladd.f32(float %80, float %82, float %78)
  %84 = fmul float 5.000000e-01, %83
  store float %84, ptr %10, align 4, !tbaa !10
  call void @llvm.lifetime.start.p0(i64 16, ptr %11) #13
  %85 = load float, ptr %7, align 4, !tbaa !10
  %86 = load float, ptr %8, align 4, !tbaa !10
  %87 = load float, ptr %9, align 4, !tbaa !10
  %88 = load float, ptr %10, align 4, !tbaa !10
  call void @_ZN2cv6dynafu10QuaternionC1Effff(ptr noundef nonnull align 4 dereferenceable(16) %11, float noundef %85, float noundef %86, float noundef %87, float noundef %88)
  %89 = getelementptr inbounds nuw %"class.cv::dynafu::DualQuaternion", ptr %12, i32 0, i32 1
  call void @llvm.memcpy.p0.p0.i64(ptr align 4 %89, ptr align 4 %11, i64 16, i1 false)
  call void @llvm.lifetime.end.p0(i64 16, ptr %11) #13
  call void @llvm.lifetime.end.p0(i64 4, ptr %10) #13
  call void @llvm.lifetime.end.p0(i64 4, ptr %9) #13
  call void @llvm.lifetime.end.p0(i64 4, ptr %8) #13
  call void @llvm.lifetime.end.p0(i64 4, ptr %7) #13
  call void @llvm.lifetime.end.p0(i64 12, ptr %6) #13
  ret void
}