; Function Attrs: mustprogress nofree nounwind memory(write, argmem: readwrite) uwtable
define hidden void @_ZN2cv6dynafu14DualQuaternionC2ERKNS_7Affine3IfEE(ptr noundef nonnull align 4 captures(none) dereferenceable(32) initializes((0, 32)) %0, ptr noundef nonnull readonly align 4 captures(none) dereferenceable(64) %1) unnamed_addr #1 align 2 {
  %3 = alloca %"class.cv::dynafu::Quaternion", align 4
  %4 = getelementptr inbounds nuw i8, ptr %0, i64 16
  tail call void @llvm.memset.p0.i64(ptr noundef nonnull align 4 dereferenceable(32) %0, i8 0, i64 32, i1 false)
  call void @llvm.lifetime.start.p0(i64 16, ptr nonnull %3) #18
  call void @_ZN2cv6dynafu10QuaternionC2ERKNS_7Affine3IfEE(ptr noundef nonnull align 4 dereferenceable(16) %3, ptr noundef nonnull align 4 dereferenceable(64) %1)
  call void @llvm.memcpy.p0.p0.i64(ptr noundef nonnull align 4 dereferenceable(16) %0, ptr noundef nonnull align 4 dereferenceable(16) %3, i64 16, i1 false)
  call void @llvm.lifetime.end.p0(i64 16, ptr nonnull %3) #18
  %5 = getelementptr inbounds nuw i8, ptr %1, i64 12
  %6 = load float, ptr %5, align 4, !tbaa !3, !noalias !31
  %7 = getelementptr inbounds nuw i8, ptr %1, i64 28
  %8 = load float, ptr %7, align 4, !tbaa !3, !noalias !31
  %9 = getelementptr inbounds nuw i8, ptr %1, i64 44
  %10 = load float, ptr %9, align 4, !tbaa !3, !noalias !31
  %11 = getelementptr inbounds nuw i8, ptr %0, i64 4
  %12 = load float, ptr %11, align 4, !tbaa !3
  %13 = getelementptr inbounds nuw i8, ptr %0, i64 8
  %14 = load float, ptr %13, align 4, !tbaa !3
  %15 = fmul float %8, %14
  %16 = tail call float @llvm.fmuladd.f32(float %6, float %12, float %15)
  %17 = getelementptr inbounds nuw i8, ptr %0, i64 12
  %18 = load float, ptr %17, align 4, !tbaa !3
  %19 = tail call float @llvm.fmuladd.f32(float %10, float %18, float %16)
  %20 = fmul float %19, -5.000000e-01
  %21 = load float, ptr %0, align 4, !tbaa !3
  %22 = fmul float %8, %18
  %23 = tail call float @llvm.fmuladd.f32(float %6, float %21, float %22)
  %24 = fneg float %10
  %25 = tail call float @llvm.fmuladd.f32(float %24, float %14, float %23)
  %26 = fmul float %25, 5.000000e-01
  %27 = fneg float %6
  %28 = fmul float %8, %21
  %29 = tail call float @llvm.fmuladd.f32(float %27, float %18, float %28)
  %30 = tail call float @llvm.fmuladd.f32(float %10, float %12, float %29)
  %31 = fmul float %30, 5.000000e-01
  %32 = fneg float %12
  %33 = fmul float %8, %32
  %34 = tail call float @llvm.fmuladd.f32(float %6, float %14, float %33)
  %35 = tail call float @llvm.fmuladd.f32(float %10, float %21, float %34)
  %36 = fmul float %35, 5.000000e-01
  store float %20, ptr %4, align 4
  %.sroa.4.0..sroa_idx = getelementptr inbounds nuw i8, ptr %0, i64 20
  store float %26, ptr %.sroa.4.0..sroa_idx, align 4
  %.sroa.5.0..sroa_idx = getelementptr inbounds nuw i8, ptr %0, i64 24
  store float %31, ptr %.sroa.5.0..sroa_idx, align 4
  %.sroa.6.0..sroa_idx = getelementptr inbounds nuw i8, ptr %0, i64 28
  store float %36, ptr %.sroa.6.0..sroa_idx, align 4
  ret void
}